; Function Attrs: nounwind uwtable
define ptr @l_Std_Internal_IO_Async_TCP_Socket_Client_keepAlive___boxed(ptr noundef %0, ptr noundef %1, ptr noundef %2, ptr noundef readnone captures(none) %3, ptr noundef %4) local_unnamed_addr #0 {
  %6 = ptrtoint ptr %1 to i64
  %7 = lshr i64 %6, 1
  %8 = trunc i64 %7 to i8
  %9 = and i64 %6, 1
  %.not = icmp eq i64 %9, 0
  br i1 %.not, label %10, label %lean_dec.exit10

10:                                               ; preds = %5
  %11 = load i32, ptr %1, align 4, !tbaa !4
  %12 = icmp sgt i32 %11, 1
  br i1 %12, label %13, label %15, !prof !11

13:                                               ; preds = %10
  %14 = add nsw i32 %11, -1
  store i32 %14, ptr %1, align 4, !tbaa !4
  br label %lean_dec.exit10

15:                                               ; preds = %10
  %.not.i = icmp eq i32 %11, 0
  br i1 %.not.i, label %lean_dec.exit10, label %16

16:                                               ; preds = %15
  tail call void @lean_dec_ref_cold(ptr noundef nonnull %1) #5
  br label %lean_dec.exit10

lean_dec.exit10:                                  ; preds = %16, %15, %13, %5
  %17 = tail call ptr @l_Int_toNat(ptr noundef %2) #5
  %18 = ptrtoint ptr %17 to i64
  %19 = and i64 %18, 1
  %.not.i8.i = icmp eq i64 %19, 0
  br i1 %.not.i8.i, label %22, label %lean_uint32_of_nat.exit.thread.i

lean_uint32_of_nat.exit.thread.i:                 ; preds = %lean_dec.exit10
  %20 = lshr i64 %18, 1
  %21 = trunc i64 %20 to i32
  br label %l_Std_Internal_IO_Async_TCP_Socket_Client_keepAlive.exit

22:                                               ; preds = %lean_dec.exit10
  %23 = tail call i32 @lean_uint32_of_big_nat(ptr noundef %17) #5
  %24 = load i32, ptr %17, align 4, !tbaa !4
  %25 = icmp sgt i32 %24, 1
  br i1 %25, label %26, label %28, !prof !11

26:                                               ; preds = %22
  %27 = add nsw i32 %24, -1
  store i32 %27, ptr %17, align 4, !tbaa !4
  br label %l_Std_Internal_IO_Async_TCP_Socket_Client_keepAlive.exit

28:                                               ; preds = %22
  %.not.i.i = icmp eq i32 %24, 0
  br i1 %.not.i.i, label %l_Std_Internal_IO_Async_TCP_Socket_Client_keepAlive.exit, label %29

29:                                               ; preds = %28
  tail call void @lean_dec_ref_cold(ptr noundef nonnull %17) #5
  br label %l_Std_Internal_IO_Async_TCP_Socket_Client_keepAlive.exit

l_Std_Internal_IO_Async_TCP_Socket_Client_keepAlive.exit: ; preds = %lean_uint32_of_nat.exit.thread.i, %26, %28, %29
  %30 = phi i32 [ %21, %lean_uint32_of_nat.exit.thread.i ], [ %23, %26 ], [ %23, %28 ], [ %23, %29 ]
  %31 = tail call ptr @lean_uv_tcp_keepalive(ptr noundef %0, i8 noundef zeroext %8, i32 noundef %30, ptr noundef %4) #5
  %32 = ptrtoint ptr %2 to i64
  %33 = and i64 %32, 1
  %.not15 = icmp eq i64 %33, 0
  br i1 %.not15, label %34, label %lean_dec.exit9

34:                                               ; preds = %l_Std_Internal_IO_Async_TCP_Socket_Client_keepAlive.exit
  %35 = load i32, ptr %2, align 4, !tbaa !4
  %36 = icmp sgt i32 %35, 1
  br i1 %36, label %37, label %39, !prof !11

37:                                               ; preds = %34
  %38 = add nsw i32 %35, -1
  store i32 %38, ptr %2, align 4, !tbaa !4
  br label %lean_dec.exit9

39:                                               ; preds = %34
  %.not.i11 = icmp eq i32 %35, 0
  br i1 %.not.i11, label %lean_dec.exit9, label %40

40:                                               ; preds = %39
  tail call void @lean_dec_ref_cold(ptr noundef nonnull %2) #5
  br label %lean_dec.exit9

lean_dec.exit9:                                   ; preds = %40, %39, %37, %l_Std_Internal_IO_Async_TCP_Socket_Client_keepAlive.exit
  %41 = ptrtoint ptr %0 to i64
  %42 = and i64 %41, 1
  %.not16 = icmp eq i64 %42, 0
  br i1 %.not16, label %43, label %lean_dec.exit

43:                                               ; preds = %lean_dec.exit9
  %44 = load i32, ptr %0, align 4, !tbaa !4
  %45 = icmp sgt i32 %44, 1
  br i1 %45, label %46, label %48, !prof !11

46:                                               ; preds = %43
  %47 = add nsw i32 %44, -1
  store i32 %47, ptr %0, align 4, !tbaa !4
  br label %lean_dec.exit

48:                                               ; preds = %43
  %.not.i13 = icmp eq i32 %44, 0
  br i1 %.not.i13, label %lean_dec.exit, label %49

49:                                               ; preds = %48
  tail call void @lean_dec_ref_cold(ptr noundef nonnull %0) #5
  br label %lean_dec.exit

lean_dec.exit:                                    ; preds = %49, %48, %46, %lean_dec.exit9
  ret ptr %31
}